target datalayout = "e-m:e-p270:32:32-p271:32:32-p272:64:64-i64:64-i128:128-f80:128-n8:16:32:64-S128"
target triple = "x86_64-pc-linux-gnu"

%struct.GCRef = type { i64 }
%struct.jit_State = type { %struct.GCtrace, ptr, ptr, ptr, ptr, ptr, ptr, i32, i32, i32, i8, i8, %struct.IRType1, i8, %struct.FoldState, ptr, i32, i32, i32, i32, i32, i32, i32, [1 x i32], [5 x %union.TValue], [3 x %union.TValue], ptr, i32, i32, i32, i32, ptr, ptr, i32, i32, i8, ptr, i32, i32, i16, [101 x i16], [258 x i32], [15 x i32], [16 x ptr], [64 x %struct.HotPenalty], i32, [16 x %struct.BPropEntry], i32, %struct.ScEvEntry, ptr, i32, i32, i32, ptr, i32, i32, ptr, ptr, ptr, i64, i64, %union.TValue, ptr, i32, i32 }
%struct.GCtrace = type { %struct.GCRef, i8, i8, i16, i32, i32, %struct.GCRef, ptr, i32, i32, ptr, ptr, %struct.GCRef, %struct.MRef, i32, i32, ptr, i32, i16, i16, i16, i16, i16, i16, i16, i8, i8, i8, i8 }
%struct.MRef = type { i64 }
%struct.IRType1 = type { i8 }
%struct.FoldState = type { %union.IRIns, [2 x %union.IRIns], [2 x %union.IRIns] }
%union.IRIns = type { %struct.GCRef }
%struct.HotPenalty = type { %struct.MRef, i16, i16 }
%struct.BPropEntry = type { i16, i16, i32 }
%struct.ScEvEntry = type { %struct.MRef, i16, i16, i16, i16, %struct.IRType1, i8 }
%union.TValue = type { i64 }
%struct.RecordFFData = type { ptr, i64, i32 }
%struct.lua_State = type { %struct.GCRef, i8, i8, i8, i8, %struct.MRef, %struct.GCRef, ptr, ptr, %struct.MRef, %struct.MRef, %struct.GCRef, %struct.GCRef, ptr, i32 }
%struct.GCfuncC = type { %struct.GCRef, i8, i8, i8, i8, %struct.GCRef, %struct.GCRef, %struct.MRef, ptr, [1 x %union.TValue] }

; Function Attrs: nounwind uwtable
define internal i32 @recdef_lookup(ptr noundef %0) #0 {
  %2 = alloca i32, align 4
  %3 = alloca ptr, align 8
  store ptr %0, ptr %3, align 8, !tbaa !45
  %4 = load ptr, ptr %3, align 8, !tbaa !45
  %5 = getelementptr inbounds nuw %struct.GCfuncC, ptr %4, i32 0, i32 3
  %6 = load i8, ptr %5, align 2, !tbaa !13
  %7 = zext i8 %6 to i64
  %8 = icmp ult i64 %7, 223
  br i1 %8, label %9, label %17

9:                                                ; preds = %1
  %10 = load ptr, ptr %3, align 8, !tbaa !45
  %11 = getelementptr inbounds nuw %struct.GCfuncC, ptr %10, i32 0, i32 3
  %12 = load i8, ptr %11, align 2, !tbaa !13
  %13 = zext i8 %12 to i64
  %14 = getelementptr inbounds nuw [223 x i16], ptr @recff_idmap, i64 0, i64 %13
  %15 = load i16, ptr %14, align 2, !tbaa !14
  %16 = zext i16 %15 to i32
  store i32 %16, ptr %2, align 4
  br label %18

17:                                               ; preds = %1
  store i32 0, ptr %2, align 4
  br label %18

18:                                               ; preds = %17, %9
  %19 = load i32, ptr %2, align 4
  ret i32 %19
}

; Function Attrs: nounwind uwtable
define hidden void @lj_ffrecord_func(ptr noundef %0) #0 {
  %2 = alloca ptr, align 8
  %3 = alloca %struct.RecordFFData, align 8
  %4 = alloca i32, align 4
  store ptr %0, ptr %2, align 8, !tbaa !4
  call void @llvm.lifetime.start.p0(i64 24, ptr %3) #9
  call void @llvm.lifetime.start.p0(i64 4, ptr %4) #9
  %5 = load ptr, ptr %2, align 8, !tbaa !4
  %6 = getelementptr inbounds nuw %struct.jit_State, ptr %5, i32 0, i32 4
  %7 = load ptr, ptr %6, align 8, !tbaa !16
  %8 = call i32 @recdef_lookup(ptr noundef %7)
  store i32 %8, ptr %4, align 4, !tbaa !9
  %9 = load i32, ptr %4, align 4, !tbaa !9
  %10 = and i32 %9, 255
  %11 = getelementptr inbounds nuw %struct.RecordFFData, ptr %3, i32 0, i32 2
  store i32 %10, ptr %11, align 8, !tbaa !34
  %12 = getelementptr inbounds nuw %struct.RecordFFData, ptr %3, i32 0, i32 1
  store i64 1, ptr %12, align 8, !tbaa !36
  %13 = load ptr, ptr %2, align 8, !tbaa !4
  %14 = getelementptr inbounds nuw %struct.jit_State, ptr %13, i32 0, i32 2
  %15 = load ptr, ptr %14, align 8, !tbaa !37
  %16 = getelementptr inbounds nuw %struct.lua_State, ptr %15, i32 0, i32 7
  %17 = load ptr, ptr %16, align 8, !tbaa !38
  %18 = getelementptr inbounds nuw %struct.RecordFFData, ptr %3, i32 0, i32 0
  store ptr %17, ptr %18, align 8, !tbaa !40
  %19 = load ptr, ptr %2, align 8, !tbaa !4
  %20 = getelementptr inbounds nuw %struct.jit_State, ptr %19, i32 0, i32 6
  %21 = load ptr, ptr %20, align 8, !tbaa !41
  %22 = load ptr, ptr %2, align 8, !tbaa !4
  %23 = getelementptr inbounds nuw %struct.jit_State, ptr %22, i32 0, i32 8
  %24 = load i32, ptr %23, align 4, !tbaa !42
  %25 = zext i32 %24 to i64
  %26 = getelementptr inbounds nuw i32, ptr %21, i64 %25
  store i32 0, ptr %26, align 4, !tbaa !9
  %27 = load i32, ptr %4, align 4, !tbaa !9
  %28 = lshr i32 %27, 8
  %29 = zext i32 %28 to i64
  %30 = getelementptr inbounds nuw [76 x ptr], ptr @recff_func, i64 0, i64 %29
  %31 = load ptr, ptr %30, align 8, !tbaa !43
  %32 = load ptr, ptr %2, align 8, !tbaa !4
  call void %31(ptr noundef %32, ptr noundef %3)
  %33 = getelementptr inbounds nuw %struct.RecordFFData, ptr %3, i32 0, i32 1
  %34 = load i64, ptr %33, align 8, !tbaa !36
  %35 = icmp sge i64 %34, 0
  br i1 %35, label %36, label %48

36:                                               ; preds = %1
  %37 = load ptr, ptr %2, align 8, !tbaa !4
  %38 = getelementptr inbounds nuw %struct.jit_State, ptr %37, i32 0, i32 34
  %39 = load i32, ptr %38, align 4, !tbaa !44
  %40 = icmp eq i32 %39, 0
  br i1 %40, label %41, label %44

41:                                               ; preds = %36
  %42 = load ptr, ptr %2, align 8, !tbaa !4
  %43 = getelementptr inbounds nuw %struct.jit_State, ptr %42, i32 0, i32 34
  store i32 6, ptr %43, align 4, !tbaa !44
  br label %44

44:                                               ; preds = %41, %36
  %45 = load ptr, ptr %2, align 8, !tbaa !4
  %46 = getelementptr inbounds nuw %struct.RecordFFData, ptr %3, i32 0, i32 1
  %47 = load i64, ptr %46, align 8, !tbaa !36
  call void @lj_record_ret(ptr noundef %45, i32 noundef 0, i64 noundef %47)
  br label %48

48:                                               ; preds = %44, %1
  call void @llvm.lifetime.end.p0(i64 4, ptr %4) #9
  call void @llvm.lifetime.end.p0(i64 24, ptr %3) #9
  ret void
}