; Function Attrs: nounwind uwtable
define hidden void @lj_ffrecord_func(ptr noundef %0) local_unnamed_addr #0 {
  %2 = alloca %struct.RecordFFData, align 8
  call void @llvm.lifetime.start.p0(i64 24, ptr nonnull %2) #9
  %3 = getelementptr inbounds nuw i8, ptr %0, i64 144
  %4 = load ptr, ptr %3, align 8, !tbaa !7
  %5 = getelementptr i8, ptr %4, i64 10
  %.val = load i8, ptr %5, align 2, !tbaa !4
  %6 = icmp ult i8 %.val, -33
  br i1 %6, label %7, label %recdef_lookup.exit

7:                                                ; preds = %1
  %8 = zext i8 %.val to i64
  %9 = getelementptr inbounds nuw [223 x i16], ptr @recff_idmap, i64 0, i64 %8
  %10 = load i16, ptr %9, align 2, !tbaa !28
  %11 = zext i16 %10 to i32
  br label %recdef_lookup.exit

recdef_lookup.exit:                               ; preds = %1, %7
  %.0.i = phi i32 [ %11, %7 ], [ 0, %1 ]
  %12 = and i32 %.0.i, 255
  %13 = getelementptr inbounds nuw i8, ptr %2, i64 16
  store i32 %12, ptr %13, align 8, !tbaa !29
  %14 = getelementptr inbounds nuw i8, ptr %2, i64 8
  store i64 1, ptr %14, align 8, !tbaa !32
  %15 = getelementptr inbounds nuw i8, ptr %0, i64 128
  %16 = load ptr, ptr %15, align 8, !tbaa !33
  %17 = getelementptr inbounds nuw i8, ptr %16, i64 32
  %18 = load ptr, ptr %17, align 8, !tbaa !34
  store ptr %18, ptr %2, align 8, !tbaa !36
  %19 = getelementptr inbounds nuw i8, ptr %0, i64 160
  %20 = load ptr, ptr %19, align 8, !tbaa !37
  %21 = getelementptr inbounds nuw i8, ptr %0, i64 172
  %22 = load i32, ptr %21, align 4, !tbaa !38
  %23 = zext i32 %22 to i64
  %24 = getelementptr inbounds nuw i32, ptr %20, i64 %23
  store i32 0, ptr %24, align 4, !tbaa !39
  %25 = lshr i32 %.0.i, 8
  %26 = zext nneg i32 %25 to i64
  %27 = getelementptr inbounds nuw [76 x ptr], ptr @recff_func, i64 0, i64 %26
  %28 = load ptr, ptr %27, align 8, !tbaa !40
  call void %28(ptr noundef nonnull %0, ptr noundef nonnull %2) #9
  %29 = load i64, ptr %14, align 8, !tbaa !32
  %30 = icmp sgt i64 %29, -1
  br i1 %30, label %31, label %37

31:                                               ; preds = %recdef_lookup.exit
  %32 = getelementptr inbounds nuw i8, ptr %0, i64 372
  %33 = load i32, ptr %32, align 4, !tbaa !41
  %34 = icmp eq i32 %33, 0
  br i1 %34, label %35, label %36

35:                                               ; preds = %31
  store i32 6, ptr %32, align 4, !tbaa !41
  br label %36

36:                                               ; preds = %35, %31
  call void @lj_record_ret(ptr noundef nonnull %0, i32 noundef 0, i64 noundef %29) #9
  br label %37

37:                                               ; preds = %36, %recdef_lookup.exit
  call void @llvm.lifetime.end.p0(i64 24, ptr nonnull %2) #9
  ret void
}